target datalayout = "e-m:e-p270:32:32-p271:32:32-p272:64:64-i64:64-i128:128-f80:128-n8:16:32:64-S128"
target triple = "x86_64-pc-linux-gnu"

%"class.zmq::poller_base_t" = type { ptr, %"class.zmq::clock_t", %"class.std::multimap", %"class.zmq::atomic_counter_t" }
%"class.zmq::clock_t" = type { i64, i64 }
%"class.std::multimap" = type { %"class.std::_Rb_tree" }
%"class.std::_Rb_tree" = type { %"struct.std::_Rb_tree<unsigned long, std::pair<const unsigned long, zmq::poller_base_t::timer_info_t>, std::_Select1st<std::pair<const unsigned long, zmq::poller_base_t::timer_info_t>>, std::less<unsigned long>>::_Rb_tree_impl" }
%"struct.std::_Rb_tree<unsigned long, std::pair<const unsigned long, zmq::poller_base_t::timer_info_t>, std::_Select1st<std::pair<const unsigned long, zmq::poller_base_t::timer_info_t>>, std::less<unsigned long>>::_Rb_tree_impl" = type { [8 x i8], %"struct.std::_Rb_tree_header" }
%"struct.std::_Rb_tree_header" = type { %"struct.std::_Rb_tree_node_base", i64 }
%"struct.std::_Rb_tree_node_base" = type { i32, ptr, ptr, ptr }
%"class.zmq::atomic_counter_t" = type { %"struct.std::atomic", [4 x i8] }
%"struct.std::atomic" = type { %"struct.std::__atomic_base" }
%"struct.std::__atomic_base" = type { i32 }
%"class.zmq::worker_poller_base_t" = type { %"class.zmq::poller_base_t", ptr, %"class.zmq::thread_t" }
%"class.zmq::thread_t" = type { ptr, ptr, [16 x i8], i8, i64, i32, i32, %"class.std::set" }
%"class.std::set" = type { %"class.std::_Rb_tree.0" }
%"class.std::_Rb_tree.0" = type { %"struct.std::_Rb_tree<int, int, std::_Identity<int>, std::less<int>>::_Rb_tree_impl" }
%"struct.std::_Rb_tree<int, int, std::_Identity<int>, std::less<int>>::_Rb_tree_impl" = type { [8 x i8], %"struct.std::_Rb_tree_header" }

@stderr = external global ptr, align 8
@.str = private unnamed_addr constant [30 x i8] c"Assertion failed: %s (%s:%d)\0A\00", align 1
@.str.2 = private unnamed_addr constant [111 x i8] c"generated/home/dtcxzyw/WorkSpace/Projects/compilers/llvm-opt-benchmark/bench/libzmq/libzmq/src/poller_base.cpp\00", align 1
@.str.3 = private unnamed_addr constant [16 x i8] c"get_load () > 0\00", align 1

; Function Attrs: noinline noreturn nounwind uwtable
define linkonce_odr hidden void @__clang_call_terminate(ptr noundef %0) #1 comdat {
  %2 = call ptr @__cxa_begin_catch(ptr %0) #16
  call void @_ZSt9terminatev() #17
  unreachable
}

; Function Attrs: mustprogress nounwind uwtable
define linkonce_odr noundef i32 @_ZStanSt12memory_orderSt23__memory_order_modifier(i32 noundef %0, i32 noundef %1) #0 comdat {
  %3 = alloca i32, align 4
  %4 = alloca i32, align 4
  store i32 %0, ptr %3, align 4, !tbaa !98
  store i32 %1, ptr %4, align 4, !tbaa !100
  %5 = load i32, ptr %3, align 4, !tbaa !98
  %6 = load i32, ptr %4, align 4, !tbaa !100
  %7 = and i32 %5, %6
  ret i32 %7
}

; Function Attrs: alwaysinline mustprogress nounwind uwtable
define linkonce_odr noundef i32 @_ZNKSt13__atomic_baseIjE4loadESt12memory_order(ptr noundef nonnull align 4 dereferenceable(4) %0, i32 noundef %1) #10 comdat align 2 personality ptr @__gxx_personality_v0 {
  %3 = alloca ptr, align 8
  %4 = alloca i32, align 4
  %5 = alloca i32, align 4
  %6 = alloca i32, align 4
  store ptr %0, ptr %3, align 8, !tbaa !96
  store i32 %1, ptr %4, align 4, !tbaa !98
  %7 = load ptr, ptr %3, align 8
  call void @llvm.lifetime.start.p0(i64 4, ptr %5) #16
  %8 = load i32, ptr %4, align 4, !tbaa !98
  %9 = invoke noundef i32 @_ZStanSt12memory_orderSt23__memory_order_modifier(i32 noundef %8, i32 noundef 65535)
          to label %10 unwind label %27

10:                                               ; preds = %2
  store i32 %9, ptr %5, align 4, !tbaa !98
  br label %11

11:                                               ; preds = %10
  br label %12

12:                                               ; preds = %11
  br label %13

13:                                               ; preds = %12
  br label %14

14:                                               ; preds = %13
  br label %15

15:                                               ; preds = %14
  br label %16

16:                                               ; preds = %15
  %17 = getelementptr inbounds nuw %"struct.std::__atomic_base", ptr %7, i32 0, i32 0
  %18 = load i32, ptr %4, align 4, !tbaa !98
  switch i32 %18, label %19 [
    i32 1, label %21
    i32 2, label %21
    i32 5, label %23
  ]

19:                                               ; preds = %16
  %20 = load atomic i32, ptr %17 monotonic, align 4
  store i32 %20, ptr %6, align 4
  br label %25

21:                                               ; preds = %16, %16
  %22 = load atomic i32, ptr %17 acquire, align 4
  store i32 %22, ptr %6, align 4
  br label %25

23:                                               ; preds = %16
  %24 = load atomic i32, ptr %17 seq_cst, align 4
  store i32 %24, ptr %6, align 4
  br label %25

25:                                               ; preds = %23, %21, %19
  %26 = load i32, ptr %6, align 4, !tbaa !16
  call void @llvm.lifetime.end.p0(i64 4, ptr %5) #16
  ret i32 %26

27:                                               ; preds = %2
  %28 = landingpad { ptr, i32 }
          catch ptr null
  %29 = extractvalue { ptr, i32 } %28, 0
  call void @__clang_call_terminate(ptr %29) #17
  unreachable
}

; Function Attrs: mustprogress nounwind uwtable
define linkonce_odr noundef i32 @_ZNKSt13__atomic_baseIjEcvjEv(ptr noundef nonnull align 4 dereferenceable(4) %0) #0 comdat align 2 {
  %2 = alloca ptr, align 8
  store ptr %0, ptr %2, align 8, !tbaa !96
  %3 = load ptr, ptr %2, align 8
  %4 = call noundef i32 @_ZNKSt13__atomic_baseIjE4loadESt12memory_order(ptr noundef nonnull align 4 dereferenceable(4) %3, i32 noundef 5) #16
  ret i32 %4
}

; Function Attrs: mustprogress nounwind uwtable
define linkonce_odr noundef i32 @_ZNK3zmq16atomic_counter_t3getEv(ptr noundef nonnull align 8 dereferenceable(4) %0) #0 comdat align 2 {
  %2 = alloca ptr, align 8
  store ptr %0, ptr %2, align 8, !tbaa !14
  %3 = load ptr, ptr %2, align 8
  %4 = getelementptr inbounds nuw %"class.zmq::atomic_counter_t", ptr %3, i32 0, i32 0
  %5 = call noundef i32 @_ZNKSt13__atomic_baseIjEcvjEv(ptr noundef nonnull align 4 dereferenceable(4) %4) #16
  ret i32 %5
}

; Function Attrs: mustprogress nounwind uwtable
define noundef i32 @_ZNK3zmq13poller_base_t8get_loadEv(ptr noundef nonnull align 8 dereferenceable(80) %0) #0 align 2 {
  %2 = alloca ptr, align 8
  store ptr %0, ptr %2, align 8, !tbaa !3
  %3 = load ptr, ptr %2, align 8
  %4 = getelementptr inbounds nuw %"class.zmq::poller_base_t", ptr %3, i32 0, i32 3
  %5 = call noundef i32 @_ZNK3zmq16atomic_counter_t3getEv(ptr noundef nonnull align 8 dereferenceable(4) %4) #16
  ret i32 %5
}

; Function Attrs: mustprogress uwtable
define void @_ZN3zmq20worker_poller_base_t5startEPKc(ptr noundef nonnull align 8 dereferenceable(192) %0, ptr noundef %1) #6 align 2 {
  %3 = alloca ptr, align 8
  %4 = alloca ptr, align 8
  store ptr %0, ptr %3, align 8, !tbaa !46
  store ptr %1, ptr %4, align 8, !tbaa !67
  %5 = load ptr, ptr %3, align 8
  br label %6

6:                                                ; preds = %2
  %7 = call noundef i32 @_ZNK3zmq13poller_base_t8get_loadEv(ptr noundef nonnull align 8 dereferenceable(80) %5)
  %8 = icmp sgt i32 %7, 0
  %9 = xor i1 %8, true
  %10 = zext i1 %9 to i64
  %11 = call i64 @llvm.expect.i64(i64 %10, i64 0)
  %12 = icmp ne i64 %11, 0
  br i1 %12, label %13, label %18

13:                                               ; preds = %6
  %14 = load ptr, ptr @stderr, align 8, !tbaa !10
  %15 = call i32 (ptr, ptr, ...) @fprintf(ptr noundef %14, ptr noundef @.str, ptr noundef @.str.3, ptr noundef @.str.2, i32 noundef 106) #16
  %16 = load ptr, ptr @stderr, align 8, !tbaa !10
  %17 = call i32 @fflush(ptr noundef %16)
  call void @_ZN3zmq9zmq_abortEPKc(ptr noundef @.str.3)
  br label %18

18:                                               ; preds = %13, %6
  br label %19

19:                                               ; preds = %18
  %20 = getelementptr inbounds nuw %"class.zmq::worker_poller_base_t", ptr %5, i32 0, i32 1
  %21 = load ptr, ptr %20, align 8, !tbaa !69
  %22 = getelementptr inbounds nuw %"class.zmq::worker_poller_base_t", ptr %5, i32 0, i32 2
  %23 = load ptr, ptr %4, align 8, !tbaa !67
  call void @_ZNK3zmq12thread_ctx_t12start_threadERNS_8thread_tEPFvPvES3_PKc(ptr noundef nonnull align 8 dereferenceable(136) %21, ptr noundef nonnull align 8 dereferenceable(104) %22, ptr noundef @_ZN3zmq20worker_poller_base_t14worker_routineEPv, ptr noundef %5, ptr noundef %23)
  ret void
}