; Function Attrs: mustprogress uwtable
define void @_ZN3zmq20worker_poller_base_t5startEPKc(ptr noundef nonnull align 8 dereferenceable(192) %0, ptr noundef %1) local_unnamed_addr #7 align 2 personality ptr @__gxx_personality_v0 {
  %3 = getelementptr inbounds nuw i8, ptr %0, i64 72
  %4 = load atomic i32, ptr %3 seq_cst, align 8
  %5 = icmp slt i32 %4, 1
  br i1 %5, label %6, label %11, !prof !50

6:                                                ; preds = %2
  %7 = load ptr, ptr @stderr, align 8, !tbaa !7
  %8 = tail call i32 (ptr, ptr, ...) @fprintf(ptr noundef %7, ptr noundef nonnull @.str, ptr noundef nonnull @.str.3, ptr noundef nonnull @.str.2, i32 noundef 106) #15
  %9 = load ptr, ptr @stderr, align 8, !tbaa !7
  %10 = tail call i32 @fflush(ptr noundef %9)
  tail call void @_ZN3zmq9zmq_abortEPKc(ptr noundef nonnull @.str.3)
  br label %11

11:                                               ; preds = %2, %6
  %12 = getelementptr inbounds nuw i8, ptr %0, i64 80
  %13 = load ptr, ptr %12, align 8, !tbaa !51
  %14 = getelementptr inbounds nuw i8, ptr %0, i64 88
  tail call void @_ZNK3zmq12thread_ctx_t12start_threadERNS_8thread_tEPFvPvES3_PKc(ptr noundef nonnull align 8 dereferenceable(136) %13, ptr noundef nonnull align 8 dereferenceable(104) %14, ptr noundef nonnull @_ZN3zmq20worker_poller_base_t14worker_routineEPv, ptr noundef nonnull %0, ptr noundef %1)
  ret void
}